target datalayout = "e-m:e-p270:32:32-p271:32:32-p272:64:64-i64:64-i128:128-f80:128-n8:16:32:64-S128"
target triple = "x86_64-pc-linux-gnu"

%struct.AVPacket = type { ptr, i64, i64, ptr, i32, i32, i32, ptr, i32, i64, i64, ptr, ptr, %struct.AVRational }
%struct.AVRational = type { i32, i32 }
%struct.AVCodecContext = type { ptr, i32, i32, ptr, i32, i32, ptr, ptr, ptr, i64, i32, i32, ptr, i32, %struct.AVRational, %struct.AVRational, %struct.AVRational, i32, i32, i32, i32, i32, %struct.AVRational, i32, i32, i32, i32, i32, i32, i32, i32, i32, i32, i32, ptr, ptr, i32, float, float, float, float, float, float, float, float, float, i32, i32, i32, i32, i32, i32, i32, i32, i32, i32, i32, i32, ptr, ptr, ptr, i32, i32, i32, i32, i32, i32, i32, i32, i32, i32, %struct.AVChannelLayout, i32, i32, i32, i32, i32, i32, i32, i32, ptr, i32, i32, i32, float, float, i32, i32, i32, i32, i32, ptr, i64, i64, float, float, i32, i32, ptr, ptr, i32, i32, i32, i32, i32, ptr, ptr, ptr, ptr, i32, i32, [8 x i64], i32, i32, i32, i32, i32, i32, i32, ptr, ptr, i32, i32, i32, i32, i32, i32, i32, i32, i32, i32, ptr, ptr, i32, i32, ptr, ptr, ptr, ptr, i32, i32, i64, i32, i32, i64, ptr, i64, ptr, i32, ptr, i32 }
%struct.AVChannelLayout = type { i32, i32, %union.anon, ptr }
%union.anon = type { i64 }
%struct.AVCodecInternal = type { i32, i32, i32, ptr, ptr, ptr, ptr, ptr, ptr, ptr, i32, ptr, ptr, ptr, i32, i32, ptr, i32, ptr, ptr, i32, i32 }

; Function Attrs: nounwind uwtable
define i32 @avcodec_receive_packet(ptr noundef %0, ptr noundef %1) #0 {
  %3 = alloca i32, align 4
  %4 = alloca ptr, align 8
  %5 = alloca ptr, align 8
  %6 = alloca ptr, align 8
  %7 = alloca i32, align 4
  %8 = alloca i32, align 4
  store ptr %0, ptr %4, align 8, !tbaa !4
  store ptr %1, ptr %5, align 8, !tbaa !9
  call void @llvm.lifetime.start.p0(i64 8, ptr %6) #10
  %9 = load ptr, ptr %4, align 8, !tbaa !4
  %10 = getelementptr inbounds nuw %struct.AVCodecContext, ptr %9, i32 0, i32 7
  %11 = load ptr, ptr %10, align 8, !tbaa !20
  store ptr %11, ptr %6, align 8, !tbaa !59
  call void @llvm.lifetime.start.p0(i64 4, ptr %7) #10
  %12 = load ptr, ptr %5, align 8, !tbaa !9
  call void @av_packet_unref(ptr noundef %12)
  %13 = load ptr, ptr %4, align 8, !tbaa !4
  %14 = call i32 @avcodec_is_open(ptr noundef %13)
  %15 = icmp ne i32 %14, 0
  br i1 %15, label %16, label %22

16:                                               ; preds = %2
  %17 = load ptr, ptr %4, align 8, !tbaa !4
  %18 = getelementptr inbounds nuw %struct.AVCodecContext, ptr %17, i32 0, i32 3
  %19 = load ptr, ptr %18, align 8, !tbaa !54
  %20 = call i32 @av_codec_is_encoder(ptr noundef %19)
  %21 = icmp ne i32 %20, 0
  br i1 %21, label %23, label %22

22:                                               ; preds = %16, %2
  store i32 -22, ptr %3, align 4
  store i32 1, ptr %8, align 4
  br label %52

23:                                               ; preds = %16
  %24 = load ptr, ptr %6, align 8, !tbaa !59
  %25 = getelementptr inbounds nuw %struct.AVCodecInternal, ptr %24, i32 0, i32 18
  %26 = load ptr, ptr %25, align 8, !tbaa !92
  %27 = getelementptr inbounds nuw %struct.AVPacket, ptr %26, i32 0, i32 3
  %28 = load ptr, ptr %27, align 8, !tbaa !13
  %29 = icmp ne ptr %28, null
  br i1 %29, label %37, label %30

30:                                               ; preds = %23
  %31 = load ptr, ptr %6, align 8, !tbaa !59
  %32 = getelementptr inbounds nuw %struct.AVCodecInternal, ptr %31, i32 0, i32 18
  %33 = load ptr, ptr %32, align 8, !tbaa !92
  %34 = getelementptr inbounds nuw %struct.AVPacket, ptr %33, i32 0, i32 7
  %35 = load ptr, ptr %34, align 8, !tbaa !93
  %36 = icmp ne ptr %35, null
  br i1 %36, label %37, label %42

37:                                               ; preds = %30, %23
  %38 = load ptr, ptr %5, align 8, !tbaa !9
  %39 = load ptr, ptr %6, align 8, !tbaa !59
  %40 = getelementptr inbounds nuw %struct.AVCodecInternal, ptr %39, i32 0, i32 18
  %41 = load ptr, ptr %40, align 8, !tbaa !92
  call void @av_packet_move_ref(ptr noundef %38, ptr noundef %41)
  br label %51

42:                                               ; preds = %30
  %43 = load ptr, ptr %4, align 8, !tbaa !4
  %44 = load ptr, ptr %5, align 8, !tbaa !9
  %45 = call i32 @encode_receive_packet_internal(ptr noundef %43, ptr noundef %44)
  store i32 %45, ptr %7, align 4, !tbaa !41
  %46 = load i32, ptr %7, align 4, !tbaa !41
  %47 = icmp slt i32 %46, 0
  br i1 %47, label %48, label %50

48:                                               ; preds = %42
  %49 = load i32, ptr %7, align 4, !tbaa !41
  store i32 %49, ptr %3, align 4
  store i32 1, ptr %8, align 4
  br label %52

50:                                               ; preds = %42
  br label %51

51:                                               ; preds = %50, %37
  store i32 0, ptr %3, align 4
  store i32 1, ptr %8, align 4
  br label %52

52:                                               ; preds = %51, %48, %22
  call void @llvm.lifetime.end.p0(i64 4, ptr %7) #10
  call void @llvm.lifetime.end.p0(i64 8, ptr %6) #10
  %53 = load i32, ptr %3, align 4
  ret i32 %53
}