; Function Attrs: nounwind uwtable
define range(i32 -2147483648, 1) i32 @avcodec_receive_packet(ptr noundef %0, ptr noundef %1) local_unnamed_addr #0 {
  %3 = getelementptr inbounds nuw i8, ptr %0, i64 40
  %4 = load ptr, ptr %3, align 8, !tbaa !15
  tail call void @av_packet_unref(ptr noundef %1) #8
  %5 = tail call i32 @avcodec_is_open(ptr noundef %0) #8
  %.not = icmp eq i32 %5, 0
  br i1 %.not, label %23, label %6

6:                                                ; preds = %2
  %7 = getelementptr inbounds nuw i8, ptr %0, i64 16
  %8 = load ptr, ptr %7, align 8, !tbaa !46
  %9 = tail call i32 @av_codec_is_encoder(ptr noundef %8) #8
  %.not13 = icmp eq i32 %9, 0
  br i1 %.not13, label %23, label %10

10:                                               ; preds = %6
  %11 = getelementptr inbounds nuw i8, ptr %4, i64 128
  %12 = load ptr, ptr %11, align 8, !tbaa !85
  %13 = getelementptr inbounds nuw i8, ptr %12, i64 24
  %14 = load ptr, ptr %13, align 8, !tbaa !4
  %.not14 = icmp eq ptr %14, null
  br i1 %.not14, label %15, label %18

15:                                               ; preds = %10
  %16 = getelementptr inbounds nuw i8, ptr %12, i64 48
  %17 = load ptr, ptr %16, align 8, !tbaa !86
  %.not15 = icmp eq ptr %17, null
  br i1 %.not15, label %19, label %18

18:                                               ; preds = %15, %10
  tail call void @av_packet_move_ref(ptr noundef %1, ptr noundef nonnull %12) #8
  br label %22

19:                                               ; preds = %15
  %20 = tail call fastcc i32 @encode_receive_packet_internal(ptr noundef nonnull %0, ptr noundef %1)
  %21 = icmp slt i32 %20, 0
  br i1 %21, label %23, label %22

22:                                               ; preds = %19, %18
  br label %23

23:                                               ; preds = %19, %2, %6, %22
  %.0 = phi i32 [ 0, %22 ], [ -22, %6 ], [ -22, %2 ], [ %20, %19 ]
  ret i32 %.0
}